; ModuleID = '1/2037.c'
source_filename = "1/2037.c"
target datalayout = "e-m:e-p270:32:32-p271:32:32-p272:64:64-i64:64-f80:128-n8:16:32:64-S128"
target triple = "x86_64-pc-linux-gnu"

@.str = private unnamed_addr constant [3 x i8] c"%d\00", align 1
@.str.1 = private unnamed_addr constant [4 x i8] c"%d\0A\00", align 1

; Function Attrs: noinline nounwind uwtable
define dso_local i32 @f(i32 %0, i32 %1) #0 {
  %3 = alloca i32, align 4
  %4 = alloca i32, align 4
  %5 = alloca i32, align 4
  %6 = alloca i32, align 4
  %7 = alloca i32, align 4
  %8 = alloca i32, align 4
  %9 = alloca i32, align 4
  store i32 %0, i32* %4, align 4
  store i32 %1, i32* %5, align 4
  %10 = load i32, i32* %4, align 4
  %11 = load i32, i32* %5, align 4
  %12 = icmp slt i32 %10, %11
  br i1 %12, label %13, label %69

13:                                               ; preds = %2
  store i32 0, i32* %7, align 4
  store i32 0, i32* %9, align 4
  store i32 0, i32* %8, align 4
  store i32 2, i32* %6, align 4
  br label %14

14:                                               ; preds = %28, %13
  %15 = load i32, i32* %6, align 4
  %16 = load i32, i32* %5, align 4
  %17 = sdiv i32 %16, 2
  %18 = icmp sle i32 %15, %17
  br i1 %18, label %19, label %31

19:                                               ; preds = %14
  %20 = load i32, i32* %5, align 4
  %21 = load i32, i32* %6, align 4
  %22 = srem i32 %20, %21
  %23 = icmp eq i32 %22, 0
  br i1 %23, label %24, label %27

24:                                               ; preds = %19
  %25 = load i32, i32* %7, align 4
  %26 = add nsw i32 %25, 1
  store i32 %26, i32* %7, align 4
  br label %27

27:                                               ; preds = %24, %19
  br label %28

28:                                               ; preds = %27
  %29 = load i32, i32* %6, align 4
  %30 = add nsw i32 %29, 1
  store i32 %30, i32* %6, align 4
  br label %14

31:                                               ; preds = %14
  %32 = load i32, i32* %7, align 4
  %33 = icmp eq i32 %32, 0
  br i1 %33, label %34, label %35

34:                                               ; preds = %31
  store i32 1, i32* %3, align 4
  br label %75

35:                                               ; preds = %31
  store i32 2, i32* %6, align 4
  br label %36

36:                                               ; preds = %63, %35
  %37 = load i32, i32* %6, align 4
  %38 = sitofp i32 %37 to double
  %39 = load i32, i32* %5, align 4
  %40 = sitofp i32 %39 to double
  %41 = call double @sqrt(double %40) #3
  %42 = fcmp ole double %38, %41
  br i1 %42, label %43, label %66

43:                                               ; preds = %36
  %44 = load i32, i32* %5, align 4
  %45 = load i32, i32* %6, align 4
  %46 = srem i32 %44, %45
  %47 = icmp eq i32 %46, 0
  br i1 %47, label %48, label %62

48:                                               ; preds = %43
  %49 = load i32, i32* %6, align 4
  %50 = load i32, i32* %4, align 4
  %51 = icmp slt i32 %49, %50
  br i1 %51, label %52, label %53

52:                                               ; preds = %48
  br label %63

53:                                               ; preds = %48
  %54 = load i32, i32* %9, align 4
  %55 = load i32, i32* %6, align 4
  %56 = load i32, i32* %5, align 4
  %57 = load i32, i32* %6, align 4
  %58 = sdiv i32 %56, %57
  %59 = call i32 @f(i32 %55, i32 %58)
  %60 = add nsw i32 %54, %59
  store i32 %60, i32* %9, align 4
  br label %61

61:                                               ; preds = %53
  br label %62

62:                                               ; preds = %61, %43
  br label %63

63:                                               ; preds = %62, %52
  %64 = load i32, i32* %6, align 4
  %65 = add nsw i32 %64, 1
  store i32 %65, i32* %6, align 4
  br label %36

66:                                               ; preds = %36
  %67 = load i32, i32* %9, align 4
  %68 = add nsw i32 %67, 1
  store i32 %68, i32* %3, align 4
  br label %75

69:                                               ; preds = %2
  %70 = load i32, i32* %4, align 4
  %71 = load i32, i32* %5, align 4
  %72 = icmp eq i32 %70, %71
  br i1 %72, label %73, label %74

73:                                               ; preds = %69
  store i32 1, i32* %3, align 4
  br label %75

74:                                               ; preds = %69
  store i32 0, i32* %3, align 4
  br label %75

75:                                               ; preds = %74, %73, %66, %34
  %76 = load i32, i32* %3, align 4
  ret i32 %76
}

; Function Attrs: nounwind
declare dso_local double @sqrt(double) #1

; Function Attrs: noinline nounwind uwtable
define dso_local i32 @main() #0 {
  %1 = alloca i32, align 4
  %2 = alloca i32, align 4
  %3 = alloca i32, align 4
  %4 = alloca i32, align 4
  %5 = alloca i32, align 4
  %6 = alloca i32, align 4
  store i32 0, i32* %1, align 4
  store i32 0, i32* %6, align 4
  store i32 0, i32* %5, align 4
  %7 = call i32 (i8*, ...) @__isoc99_scanf(i8* getelementptr inbounds ([3 x i8], [3 x i8]* @.str, i64 0, i64 0), i32* %2)
  store i32 1, i32* %3, align 4
  br label %8

8:                                                ; preds = %18, %0
  %9 = load i32, i32* %3, align 4
  %10 = load i32, i32* %2, align 4
  %11 = icmp sle i32 %9, %10
  br i1 %11, label %12, label %21

12:                                               ; preds = %8
  %13 = call i32 (i8*, ...) @__isoc99_scanf(i8* getelementptr inbounds ([3 x i8], [3 x i8]* @.str, i64 0, i64 0), i32* %4)
  %14 = load i32, i32* %4, align 4
  %15 = call i32 @f(i32 2, i32 %14)
  store i32 %15, i32* %5, align 4
  %16 = load i32, i32* %5, align 4
  %17 = call i32 (i8*, ...) @printf(i8* getelementptr inbounds ([4 x i8], [4 x i8]* @.str.1, i64 0, i64 0), i32 %16)
  br label %18

18:                                               ; preds = %12
  %19 = load i32, i32* %3, align 4
  %20 = add nsw i32 %19, 1
  store i32 %20, i32* %3, align 4
  br label %8

21:                                               ; preds = %8
  ret i32 0
}

declare dso_local i32 @__isoc99_scanf(i8*, ...) #2

declare dso_local i32 @printf(i8*, ...) #2


!llvm.module.flags = !{!0}
!llvm.ident = !{!1}

!0 = !{i32 1, !"wchar_size", i32 4}
!1 = !{!"clang version 10.0.0-4ubuntu1 "}
